; ModuleID = '44/283.cpp'
source_filename = "44/283.cpp"
target datalayout = "e-m:e-p270:32:32-p271:32:32-p272:64:64-i64:64-f80:128-n8:16:32:64-S128"
target triple = "x86_64-pc-linux-gnu"

%"class.std::ios_base::Init" = type { i8 }
%"class.std::basic_istream" = type { i32 (...)**, i64, %"class.std::basic_ios" }
%"class.std::basic_ios" = type { %"class.std::ios_base", %"class.std::basic_ostream"*, i8, i8, %"class.std::basic_streambuf"*, %"class.std::ctype"*, %"class.std::num_put"*, %"class.std::num_get"* }
%"class.std::ios_base" = type { i32 (...)**, i64, i64, i32, i32, i32, %"struct.std::ios_base::_Callback_list"*, %"struct.std::ios_base::_Words", [8 x %"struct.std::ios_base::_Words"], i32, %"struct.std::ios_base::_Words"*, %"class.std::locale" }
%"struct.std::ios_base::_Callback_list" = type { %"struct.std::ios_base::_Callback_list"*, void (i32, %"class.std::ios_base"*, i32)*, i32, i32 }
%"struct.std::ios_base::_Words" = type { i8*, i64 }
%"class.std::locale" = type { %"class.std::locale::_Impl"* }
%"class.std::locale::_Impl" = type { i32, %"class.std::locale::facet"**, i64, %"class.std::locale::facet"**, i8** }
%"class.std::locale::facet" = type <{ i32 (...)**, i32, [4 x i8] }>
%"class.std::basic_ostream" = type { i32 (...)**, %"class.std::basic_ios" }
%"class.std::basic_streambuf" = type { i32 (...)**, i8*, i8*, i8*, i8*, i8*, i8*, %"class.std::locale" }
%"class.std::ctype" = type <{ %"class.std::locale::facet.base", [4 x i8], %struct.__locale_struct*, i8, [7 x i8], i32*, i32*, i16*, i8, [256 x i8], [256 x i8], i8, [6 x i8] }>
%"class.std::locale::facet.base" = type <{ i32 (...)**, i32 }>
%struct.__locale_struct = type { [13 x %struct.__locale_data*], i16*, i32*, i32*, [13 x i8*] }
%struct.__locale_data = type opaque
%"class.std::num_put" = type { %"class.std::locale::facet.base", [4 x i8] }
%"class.std::num_get" = type { %"class.std::locale::facet.base", [4 x i8] }

@_ZStL8__ioinit = internal global %"class.std::ios_base::Init" zeroinitializer, align 1
@__dso_handle = external hidden global i8
@_ZSt3cin = external dso_local global %"class.std::basic_istream", align 8
@_ZSt4cout = external dso_local global %"class.std::basic_ostream", align 8
@.str = private unnamed_addr constant [2 x i8] c"-\00", align 1
@llvm.global_ctors = appending global [1 x { i32, void ()*, i8* }] [{ i32, void ()*, i8* } { i32 65535, void ()* @_GLOBAL__sub_I_283.cpp, i8* null }]

; Function Attrs: noinline uwtable
define internal void @__cxx_global_var_init() #0 section ".text.startup" {
  call void @_ZNSt8ios_base4InitC1Ev(%"class.std::ios_base::Init"* @_ZStL8__ioinit)
  %1 = call i32 @__cxa_atexit(void (i8*)* bitcast (void (%"class.std::ios_base::Init"*)* @_ZNSt8ios_base4InitD1Ev to void (i8*)*), i8* getelementptr inbounds (%"class.std::ios_base::Init", %"class.std::ios_base::Init"* @_ZStL8__ioinit, i32 0, i32 0), i8* @__dso_handle) #3
  ret void
}

declare dso_local void @_ZNSt8ios_base4InitC1Ev(%"class.std::ios_base::Init"*) unnamed_addr #1

; Function Attrs: nounwind
declare dso_local void @_ZNSt8ios_base4InitD1Ev(%"class.std::ios_base::Init"*) unnamed_addr #2

; Function Attrs: nounwind
declare dso_local i32 @__cxa_atexit(void (i8*)*, i8*, i8*) #3

; Function Attrs: noinline norecurse uwtable
define dso_local i32 @main() #4 {
  %1 = alloca i32, align 4
  %2 = alloca i32, align 4
  %3 = alloca i32, align 4
  store i32 0, i32* %1, align 4
  store i32 1, i32* %2, align 4
  br label %4

4:                                                ; preds = %28, %0
  %5 = load i32, i32* %2, align 4
  %6 = icmp sle i32 %5, 6
  br i1 %6, label %7, label %31

7:                                                ; preds = %4
  %8 = call dereferenceable(280) %"class.std::basic_istream"* @_ZNSirsERi(%"class.std::basic_istream"* @_ZSt3cin, i32* dereferenceable(4) %3)
  %9 = load i32, i32* %3, align 4
  %10 = icmp eq i32 %9, 0
  br i1 %10, label %11, label %14

11:                                               ; preds = %7
  %12 = call dereferenceable(272) %"class.std::basic_ostream"* @_ZStlsISt11char_traitsIcEERSt13basic_ostreamIcT_ES5_c(%"class.std::basic_ostream"* dereferenceable(272) @_ZSt4cout, i8 signext 48)
  %13 = call dereferenceable(272) %"class.std::basic_ostream"* @_ZNSolsEPFRSoS_E(%"class.std::basic_ostream"* %12, %"class.std::basic_ostream"* (%"class.std::basic_ostream"*)* @_ZSt4endlIcSt11char_traitsIcEERSt13basic_ostreamIT_T0_ES6_)
  br label %14

14:                                               ; preds = %11, %7
  %15 = load i32, i32* %3, align 4
  %16 = icmp sgt i32 %15, 0
  br i1 %16, label %17, label %19

17:                                               ; preds = %14
  %18 = load i32, i32* %3, align 4
  call void @_Z9oppoorderi(i32 %18)
  br label %19

19:                                               ; preds = %17, %14
  %20 = load i32, i32* %3, align 4
  %21 = icmp slt i32 %20, 0
  br i1 %21, label %22, label %27

22:                                               ; preds = %19
  %23 = load i32, i32* %3, align 4
  %24 = sub nsw i32 0, %23
  store i32 %24, i32* %3, align 4
  %25 = call dereferenceable(272) %"class.std::basic_ostream"* @_ZStlsISt11char_traitsIcEERSt13basic_ostreamIcT_ES5_PKc(%"class.std::basic_ostream"* dereferenceable(272) @_ZSt4cout, i8* getelementptr inbounds ([2 x i8], [2 x i8]* @.str, i64 0, i64 0))
  %26 = load i32, i32* %3, align 4
  call void @_Z9oppoorderi(i32 %26)
  br label %27

27:                                               ; preds = %22, %19
  br label %28

28:                                               ; preds = %27
  %29 = load i32, i32* %2, align 4
  %30 = add nsw i32 %29, 1
  store i32 %30, i32* %2, align 4
  br label %4

31:                                               ; preds = %4
  ret i32 0
}

declare dso_local dereferenceable(280) %"class.std::basic_istream"* @_ZNSirsERi(%"class.std::basic_istream"*, i32* dereferenceable(4)) #1

declare dso_local dereferenceable(272) %"class.std::basic_ostream"* @_ZStlsISt11char_traitsIcEERSt13basic_ostreamIcT_ES5_c(%"class.std::basic_ostream"* dereferenceable(272), i8 signext) #1

declare dso_local dereferenceable(272) %"class.std::basic_ostream"* @_ZNSolsEPFRSoS_E(%"class.std::basic_ostream"*, %"class.std::basic_ostream"* (%"class.std::basic_ostream"*)*) #1

declare dso_local dereferenceable(272) %"class.std::basic_ostream"* @_ZSt4endlIcSt11char_traitsIcEERSt13basic_ostreamIT_T0_ES6_(%"class.std::basic_ostream"* dereferenceable(272)) #1

; Function Attrs: noinline uwtable
define dso_local void @_Z9oppoorderi(i32 %0) #0 {
  %2 = alloca i32, align 4
  %3 = alloca [32 x i32], align 16
  %4 = alloca i32, align 4
  %5 = alloca i32, align 4
  %6 = alloca i32, align 4
  store i32 %0, i32* %2, align 4
  store i32 0, i32* %4, align 4
  store i32 0, i32* %6, align 4
  br label %7

7:                                                ; preds = %10, %1
  %8 = load i32, i32* %2, align 4
  %9 = icmp ne i32 %8, 0
  br i1 %9, label %10, label %20

10:                                               ; preds = %7
  %11 = load i32, i32* %2, align 4
  %12 = srem i32 %11, 10
  %13 = load i32, i32* %4, align 4
  %14 = sext i32 %13 to i64
  %15 = getelementptr inbounds [32 x i32], [32 x i32]* %3, i64 0, i64 %14
  store i32 %12, i32* %15, align 4
  %16 = load i32, i32* %4, align 4
  %17 = add nsw i32 %16, 1
  store i32 %17, i32* %4, align 4
  %18 = load i32, i32* %2, align 4
  %19 = sdiv i32 %18, 10
  store i32 %19, i32* %2, align 4
  br label %7

20:                                               ; preds = %7
  store i32 0, i32* %5, align 4
  br label %21

21:                                               ; preds = %49, %20
  %22 = load i32, i32* %5, align 4
  %23 = load i32, i32* %4, align 4
  %24 = sub nsw i32 %23, 1
  %25 = icmp sle i32 %22, %24
  br i1 %25, label %26, label %52

26:                                               ; preds = %21
  %27 = load i32, i32* %5, align 4
  %28 = sext i32 %27 to i64
  %29 = getelementptr inbounds [32 x i32], [32 x i32]* %3, i64 0, i64 %28
  %30 = load i32, i32* %29, align 4
  %31 = icmp eq i32 %30, 0
  br i1 %31, label %32, label %36

32:                                               ; preds = %26
  %33 = load i32, i32* %6, align 4
  %34 = icmp eq i32 %33, 0
  br i1 %34, label %35, label %36

35:                                               ; preds = %32
  br label %49

36:                                               ; preds = %32, %26
  %37 = load i32, i32* %5, align 4
  %38 = sext i32 %37 to i64
  %39 = getelementptr inbounds [32 x i32], [32 x i32]* %3, i64 0, i64 %38
  %40 = load i32, i32* %39, align 4
  %41 = icmp ne i32 %40, 0
  br i1 %41, label %42, label %43

42:                                               ; preds = %36
  store i32 1, i32* %6, align 4
  br label %43

43:                                               ; preds = %42, %36
  %44 = load i32, i32* %5, align 4
  %45 = sext i32 %44 to i64
  %46 = getelementptr inbounds [32 x i32], [32 x i32]* %3, i64 0, i64 %45
  %47 = load i32, i32* %46, align 4
  %48 = call dereferenceable(272) %"class.std::basic_ostream"* @_ZNSolsEi(%"class.std::basic_ostream"* @_ZSt4cout, i32 %47)
  br label %49

49:                                               ; preds = %43, %35
  %50 = load i32, i32* %5, align 4
  %51 = add nsw i32 %50, 1
  store i32 %51, i32* %5, align 4
  br label %21

52:                                               ; preds = %21
  %53 = call dereferenceable(272) %"class.std::basic_ostream"* @_ZNSolsEPFRSoS_E(%"class.std::basic_ostream"* @_ZSt4cout, %"class.std::basic_ostream"* (%"class.std::basic_ostream"*)* @_ZSt4endlIcSt11char_traitsIcEERSt13basic_ostreamIT_T0_ES6_)
  ret void
}

declare dso_local dereferenceable(272) %"class.std::basic_ostream"* @_ZStlsISt11char_traitsIcEERSt13basic_ostreamIcT_ES5_PKc(%"class.std::basic_ostream"* dereferenceable(272), i8*) #1

declare dso_local dereferenceable(272) %"class.std::basic_ostream"* @_ZNSolsEi(%"class.std::basic_ostream"*, i32) #1

; Function Attrs: noinline uwtable
define internal void @_GLOBAL__sub_I_283.cpp() #0 section ".text.startup" {
  call void @__cxx_global_var_init()
  ret void
}


!llvm.module.flags = !{!0}
!llvm.ident = !{!1}

!0 = !{i32 1, !"wchar_size", i32 4}
!1 = !{!"clang version 10.0.0-4ubuntu1 "}
